; Function Attrs: nounwind uwtable
define internal range(i32 0, 2) i32 @dsa_to_DSA_der_encode(ptr noundef %0, ptr noundef %1, ptr noundef %2, ptr noundef readnone captures(address_is_null) %3, i32 noundef %4, ptr noundef %5, ptr noundef %6) #0 {
  %8 = alloca ptr, align 8
  %.not = icmp eq ptr %3, null
  br i1 %.not, label %10, label %9

9:                                                ; preds = %7
  tail call void @ERR_new() #5
  tail call void @ERR_set_debug(ptr noundef nonnull @.str, i32 noundef 1554, ptr noundef nonnull @__func__.dsa_to_DSA_der_encode) #5
  tail call void (i32, i32, ptr, ...) @ERR_set_error(i32 noundef 57, i32 noundef 524550, ptr noundef null) #5
  br label %key2any_encode.exit

10:                                               ; preds = %7
  %11 = and i32 %4, 1
  %.not17 = icmp eq i32 %11, 0
  br i1 %.not17, label %35, label %12

12:                                               ; preds = %10
  %13 = icmp eq ptr %2, null
  br i1 %13, label %14, label %15

14:                                               ; preds = %12
  tail call void @ERR_new() #5
  tail call void @ERR_set_debug(ptr noundef nonnull @.str, i32 noundef 1140, ptr noundef nonnull @__func__.key2any_encode) #5
  tail call void (i32, i32, ptr, ...) @ERR_set_error(i32 noundef 57, i32 noundef 786690, ptr noundef null) #5
  br label %key2any_encode.exit

15:                                               ; preds = %12
  %16 = load ptr, ptr %0, align 8, !tbaa !3
  %17 = tail call ptr @ossl_bio_new_from_core_bio(ptr noundef %16, ptr noundef %1) #5
  %.not28.i = icmp eq ptr %17, null
  br i1 %.not28.i, label %33, label %18

18:                                               ; preds = %15
  %19 = icmp eq ptr %5, null
  br i1 %19, label %23, label %20

20:                                               ; preds = %18
  %21 = getelementptr inbounds nuw i8, ptr %0, i64 24
  %22 = tail call i32 @ossl_pw_set_ossl_passphrase_cb(ptr noundef nonnull %21, ptr noundef nonnull %5, ptr noundef %6) #5
  %.not29.i = icmp eq i32 %22, 0
  br i1 %.not29.i, label %33, label %23

23:                                               ; preds = %20, %18
  call void @llvm.lifetime.start.p0(i64 8, ptr nonnull %8) #5
  store ptr null, ptr %8, align 8, !tbaa !16
  %24 = call i32 @i2d_DSAPrivateKey(ptr noundef nonnull %2, ptr noundef nonnull %8) #5
  %25 = icmp slt i32 %24, 1
  br i1 %25, label %26, label %27

26:                                               ; preds = %23
  call void @ERR_new() #5
  call void @ERR_set_debug(ptr noundef nonnull @.str, i32 noundef 391, ptr noundef nonnull @__func__.key_to_type_specific_der_bio) #5
  call void (i32, i32, ptr, ...) @ERR_set_error(i32 noundef 57, i32 noundef 524345, ptr noundef null) #5
  br label %key_to_type_specific_der_bio.exit

27:                                               ; preds = %23
  %28 = load ptr, ptr %8, align 8, !tbaa !16
  %29 = call i32 @BIO_write(ptr noundef nonnull %17, ptr noundef %28, i32 noundef %24) #5
  %30 = load ptr, ptr %8, align 8, !tbaa !16
  call void @CRYPTO_free(ptr noundef %30, ptr noundef nonnull @.str, i32 noundef 396) #5
  %31 = icmp sgt i32 %29, 0
  %32 = zext i1 %31 to i32
  br label %key_to_type_specific_der_bio.exit

key_to_type_specific_der_bio.exit:                ; preds = %26, %27
  %.0.i29 = phi i32 [ 0, %26 ], [ %32, %27 ]
  call void @llvm.lifetime.end.p0(i64 8, ptr nonnull %8) #5
  br label %33

33:                                               ; preds = %key_to_type_specific_der_bio.exit, %20, %15
  %.1.i = phi i32 [ %.0.i29, %key_to_type_specific_der_bio.exit ], [ 0, %20 ], [ 0, %15 ]
  %34 = call i32 @BIO_free(ptr noundef %17) #5
  br label %key2any_encode.exit

35:                                               ; preds = %10
  %36 = and i32 %4, 2
  %.not18 = icmp eq i32 %36, 0
  br i1 %.not18, label %52, label %37

37:                                               ; preds = %35
  %38 = icmp eq ptr %2, null
  br i1 %38, label %39, label %40

39:                                               ; preds = %37
  tail call void @ERR_new() #5
  tail call void @ERR_set_debug(ptr noundef nonnull @.str, i32 noundef 1140, ptr noundef nonnull @__func__.key2any_encode) #5
  tail call void (i32, i32, ptr, ...) @ERR_set_error(i32 noundef 57, i32 noundef 786690, ptr noundef null) #5
  br label %key2any_encode.exit

40:                                               ; preds = %37
  %41 = load ptr, ptr %0, align 8, !tbaa !3
  %42 = tail call ptr @ossl_bio_new_from_core_bio(ptr noundef %41, ptr noundef %1) #5
  %.not28.i20 = icmp eq ptr %42, null
  br i1 %.not28.i20, label %50, label %43

43:                                               ; preds = %40
  %44 = icmp eq ptr %5, null
  br i1 %44, label %48, label %45

45:                                               ; preds = %43
  %46 = getelementptr inbounds nuw i8, ptr %0, i64 24
  %47 = tail call i32 @ossl_pw_set_ossl_passphrase_cb(ptr noundef nonnull %46, ptr noundef nonnull %5, ptr noundef %6) #5
  %.not29.i21 = icmp eq i32 %47, 0
  br i1 %.not29.i21, label %50, label %48

48:                                               ; preds = %45, %43
  %49 = tail call i32 @key_to_type_specific_der_bio(ptr noundef nonnull %42, ptr noundef nonnull %2, i32 poison, ptr nonnull poison, ptr nonnull poison, ptr noundef nonnull @dsa_pub_k2d, ptr noundef nonnull %0) #5
  br label %50

50:                                               ; preds = %48, %45, %40
  %.1.i22 = phi i32 [ %49, %48 ], [ 0, %45 ], [ 0, %40 ]
  %51 = tail call i32 @BIO_free(ptr noundef %42) #5
  br label %key2any_encode.exit

52:                                               ; preds = %35
  %53 = and i32 %4, 132
  %.not19 = icmp eq i32 %53, 0
  br i1 %.not19, label %64, label %54

54:                                               ; preds = %52
  %55 = icmp eq ptr %2, null
  br i1 %55, label %56, label %57

56:                                               ; preds = %54
  tail call void @ERR_new() #5
  tail call void @ERR_set_debug(ptr noundef nonnull @.str, i32 noundef 1140, ptr noundef nonnull @__func__.key2any_encode) #5
  tail call void (i32, i32, ptr, ...) @ERR_set_error(i32 noundef 57, i32 noundef 786690, ptr noundef null) #5
  br label %key2any_encode.exit

57:                                               ; preds = %54
  %58 = load ptr, ptr %0, align 8, !tbaa !3
  %59 = tail call ptr @ossl_bio_new_from_core_bio(ptr noundef %58, ptr noundef %1) #5
  %.not28.i25 = icmp eq ptr %59, null
  br i1 %.not28.i25, label %62, label %60

60:                                               ; preds = %57
  %61 = tail call i32 @key_to_type_specific_der_bio(ptr noundef nonnull %59, ptr noundef nonnull %2, i32 poison, ptr nonnull poison, ptr poison, ptr noundef nonnull @dsa_param_k2d, ptr noundef nonnull %0) #5
  br label %62

62:                                               ; preds = %60, %57
  %.1.i26 = phi i32 [ %61, %60 ], [ 0, %57 ]
  %63 = tail call i32 @BIO_free(ptr noundef %59) #5
  br label %key2any_encode.exit

64:                                               ; preds = %52
  tail call void @ERR_new() #5
  tail call void @ERR_set_debug(ptr noundef nonnull @.str, i32 noundef 1554, ptr noundef nonnull @__func__.dsa_to_DSA_der_encode) #5
  tail call void (i32, i32, ptr, ...) @ERR_set_error(i32 noundef 57, i32 noundef 524550, ptr noundef null) #5
  br label %key2any_encode.exit

key2any_encode.exit:                              ; preds = %62, %56, %50, %39, %33, %14, %64, %9
  %.0 = phi i32 [ 0, %9 ], [ 0, %64 ], [ 0, %14 ], [ %.1.i, %33 ], [ 0, %39 ], [ %.1.i22, %50 ], [ 0, %56 ], [ %.1.i26, %62 ]
  ret i32 %.0
}